; Function Attrs: null_pointer_is_valid sspstrong uwtable
define internal fastcc void @dissect_query_afp_add_icon(ptr noundef %0, ptr noundef %1) unnamed_addr #1 {
  %3 = load i32, ptr @hf_afp_pad, align 4
  %4 = tail call ptr @proto_tree_add_item(ptr noundef %1, i32 noundef %3, ptr noundef %0, i32 noundef 1, i32 noundef 1, i32 noundef 0)
  %5 = load i32, ptr @hf_afp_dt_ref, align 4
  %6 = tail call ptr @proto_tree_add_item(ptr noundef %1, i32 noundef %5, ptr noundef %0, i32 noundef 2, i32 noundef 2, i32 noundef 0)
  %7 = load i32, ptr @hf_afp_file_creator, align 4
  %8 = tail call ptr @proto_tree_add_item(ptr noundef %1, i32 noundef %7, ptr noundef %0, i32 noundef 4, i32 noundef 4, i32 noundef 0)
  %9 = load i32, ptr @hf_afp_file_type, align 4
  %10 = tail call ptr @proto_tree_add_item(ptr noundef %1, i32 noundef %9, ptr noundef %0, i32 noundef 8, i32 noundef 4, i32 noundef 0)
  %11 = load i32, ptr @hf_afp_icon_type, align 4
  %12 = tail call ptr @proto_tree_add_item(ptr noundef %1, i32 noundef %11, ptr noundef %0, i32 noundef 12, i32 noundef 1, i32 noundef 0)
  %13 = load i32, ptr @hf_afp_pad, align 4
  %14 = tail call ptr @proto_tree_add_item(ptr noundef %1, i32 noundef %13, ptr noundef %0, i32 noundef 13, i32 noundef 1, i32 noundef 0)
  %15 = load i32, ptr @hf_afp_icon_tag, align 4
  %16 = tail call ptr @proto_tree_add_item(ptr noundef %1, i32 noundef %15, ptr noundef %0, i32 noundef 14, i32 noundef 4, i32 noundef 0)
  %17 = load i32, ptr @hf_afp_icon_length, align 4
  %18 = tail call ptr @proto_tree_add_item(ptr noundef %1, i32 noundef %17, ptr noundef %0, i32 noundef 18, i32 noundef 2, i32 noundef 0)
  ret void
}